target datalayout = "e-m:e-p270:32:32-p271:32:32-p272:64:64-i64:64-i128:128-f80:128-n8:16:32:64-S128"
target triple = "x86_64-pc-linux-gnu"

%struct.FullTransactionId = type { i64 }
%struct.pg_atomic_uint32 = type { i32 }
%struct.LWLock = type { i16, %struct.pg_atomic_uint32, %struct.proclist_head }
%struct.proclist_head = type { i32, i32 }
%union.LWLockPadded = type { %struct.LWLock, [112 x i8] }
%struct.TransamVariablesData = type { i32, i32, %struct.FullTransactionId, i32, i32, i32, i32, i32, i32, i32, i32, %struct.FullTransactionId, i64, i32 }

@TransamVariables = dso_local global ptr null, align 8
@.str.2 = private unnamed_addr constant [9 x i8] c"varsup.c\00", align 1
@MainLWLockArray = external global ptr, align 8
@.str.12 = private unnamed_addr constant [35 x i8] c"cannot assign OIDs during recovery\00", align 1
@__func__.GetNewObjectId = private unnamed_addr constant [15 x i8] c"GetNewObjectId\00", align 1
@IsPostmasterEnvironment = external global i8, align 1

; Function Attrs: nounwind uwtable
define dso_local i32 @GetNewObjectId() #0 {
  %1 = alloca i32, align 4
  call void @llvm.lifetime.start.p0(i64 4, ptr %1) #8
  %2 = call zeroext i1 @RecoveryInProgress()
  br i1 %2, label %3, label %14

3:                                                ; preds = %0
  br label %4

4:                                                ; preds = %3
  br i1 true, label %5, label %7

5:                                                ; preds = %4
  %6 = call zeroext i1 @errstart_cold(i32 noundef 21, ptr noundef null) #9
  br i1 %6, label %9, label %11

7:                                                ; preds = %4
  %8 = call zeroext i1 @errstart(i32 noundef 21, ptr noundef null)
  br i1 %8, label %9, label %11

9:                                                ; preds = %7, %5
  %10 = call i32 (ptr, ...) @errmsg_internal(ptr noundef @.str.12)
  call void @errfinish(ptr noundef @.str.2, i32 noundef 561, ptr noundef @__func__.GetNewObjectId)
  br label %11

11:                                               ; preds = %9, %7, %5
  unreachable

12:                                               ; No predecessors!
  br label %13

13:                                               ; preds = %12
  br label %14

14:                                               ; preds = %13, %0
  %15 = load ptr, ptr @MainLWLockArray, align 8
  %16 = getelementptr inbounds %union.LWLockPadded, ptr %15, i64 2
  %17 = call zeroext i1 @LWLockAcquire(ptr noundef %16, i32 noundef 0)
  %18 = load ptr, ptr @TransamVariables, align 8
  %19 = getelementptr inbounds nuw %struct.TransamVariablesData, ptr %18, i32 0, i32 0
  %20 = load i32, ptr %19, align 8
  %21 = icmp ult i32 %20, 16384
  br i1 %21, label %22, label %42

22:                                               ; preds = %14
  %23 = load i8, ptr @IsPostmasterEnvironment, align 1, !range !4, !noundef !5
  %24 = trunc i8 %23 to i1
  br i1 %24, label %25, label %30

25:                                               ; preds = %22
  %26 = load ptr, ptr @TransamVariables, align 8
  %27 = getelementptr inbounds nuw %struct.TransamVariablesData, ptr %26, i32 0, i32 0
  store i32 16384, ptr %27, align 8
  %28 = load ptr, ptr @TransamVariables, align 8
  %29 = getelementptr inbounds nuw %struct.TransamVariablesData, ptr %28, i32 0, i32 1
  store i32 0, ptr %29, align 4
  br label %41

30:                                               ; preds = %22
  %31 = load ptr, ptr @TransamVariables, align 8
  %32 = getelementptr inbounds nuw %struct.TransamVariablesData, ptr %31, i32 0, i32 0
  %33 = load i32, ptr %32, align 8
  %34 = icmp ult i32 %33, 10000
  br i1 %34, label %35, label %40

35:                                               ; preds = %30
  %36 = load ptr, ptr @TransamVariables, align 8
  %37 = getelementptr inbounds nuw %struct.TransamVariablesData, ptr %36, i32 0, i32 0
  store i32 16384, ptr %37, align 8
  %38 = load ptr, ptr @TransamVariables, align 8
  %39 = getelementptr inbounds nuw %struct.TransamVariablesData, ptr %38, i32 0, i32 1
  store i32 0, ptr %39, align 4
  br label %40

40:                                               ; preds = %35, %30
  br label %41

41:                                               ; preds = %40, %25
  br label %42

42:                                               ; preds = %41, %14
  %43 = load ptr, ptr @TransamVariables, align 8
  %44 = getelementptr inbounds nuw %struct.TransamVariablesData, ptr %43, i32 0, i32 1
  %45 = load i32, ptr %44, align 4
  %46 = icmp eq i32 %45, 0
  br i1 %46, label %47, label %54

47:                                               ; preds = %42
  %48 = load ptr, ptr @TransamVariables, align 8
  %49 = getelementptr inbounds nuw %struct.TransamVariablesData, ptr %48, i32 0, i32 0
  %50 = load i32, ptr %49, align 8
  %51 = add i32 %50, 8192
  call void @XLogPutNextOid(i32 noundef %51)
  %52 = load ptr, ptr @TransamVariables, align 8
  %53 = getelementptr inbounds nuw %struct.TransamVariablesData, ptr %52, i32 0, i32 1
  store i32 8192, ptr %53, align 4
  br label %54

54:                                               ; preds = %47, %42
  %55 = load ptr, ptr @TransamVariables, align 8
  %56 = getelementptr inbounds nuw %struct.TransamVariablesData, ptr %55, i32 0, i32 0
  %57 = load i32, ptr %56, align 8
  store i32 %57, ptr %1, align 4
  %58 = load ptr, ptr @TransamVariables, align 8
  %59 = getelementptr inbounds nuw %struct.TransamVariablesData, ptr %58, i32 0, i32 0
  %60 = load i32, ptr %59, align 8
  %61 = add i32 %60, 1
  store i32 %61, ptr %59, align 8
  %62 = load ptr, ptr @TransamVariables, align 8
  %63 = getelementptr inbounds nuw %struct.TransamVariablesData, ptr %62, i32 0, i32 1
  %64 = load i32, ptr %63, align 4
  %65 = add i32 %64, -1
  store i32 %65, ptr %63, align 4
  %66 = load ptr, ptr @MainLWLockArray, align 8
  %67 = getelementptr inbounds %union.LWLockPadded, ptr %66, i64 2
  call void @LWLockRelease(ptr noundef %67)
  %68 = load i32, ptr %1, align 4
  call void @llvm.lifetime.end.p0(i64 4, ptr %1) #8
  ret i32 %68
}