; Function Attrs: nounwind uwtable
define dso_local i32 @GetNewObjectId() local_unnamed_addr #1 {
  %1 = tail call zeroext i1 @RecoveryInProgress() #8
  br i1 %1, label %2, label %5

2:                                                ; preds = %0
  %3 = tail call zeroext i1 @errstart_cold(i32 noundef 21, ptr noundef null) #9
  tail call void @llvm.assume(i1 %3)
  %4 = tail call i32 (ptr, ...) @errmsg_internal(ptr noundef nonnull @.str.12) #8
  tail call void @errfinish(ptr noundef nonnull @.str.2, i32 noundef 561, ptr noundef nonnull @__func__.GetNewObjectId) #8
  unreachable

5:                                                ; preds = %0
  %6 = load ptr, ptr @MainLWLockArray, align 8
  %7 = getelementptr inbounds nuw i8, ptr %6, i64 256
  %8 = tail call zeroext i1 @LWLockAcquire(ptr noundef nonnull %7, i32 noundef 0) #8
  %9 = load ptr, ptr @TransamVariables, align 8
  %10 = load i32, ptr %9, align 8
  %11 = icmp ult i32 %10, 16384
  br i1 %11, label %12, label %18

12:                                               ; preds = %5
  %13 = load i8, ptr @IsPostmasterEnvironment, align 1, !range !4, !noundef !5
  %14 = trunc nuw i8 %13 to i1
  %15 = icmp samesign ult i32 %10, 10000
  %or.cond = select i1 %14, i1 true, i1 %15
  br i1 %or.cond, label %.sink.split, label %18

.sink.split:                                      ; preds = %12
  store i32 16384, ptr %9, align 8
  %16 = load ptr, ptr @TransamVariables, align 8
  %17 = getelementptr inbounds nuw i8, ptr %16, i64 4
  store i32 0, ptr %17, align 4
  br label %18

18:                                               ; preds = %12, %.sink.split, %5
  %19 = load ptr, ptr @TransamVariables, align 8
  %20 = getelementptr inbounds nuw i8, ptr %19, i64 4
  %21 = load i32, ptr %20, align 4
  %22 = icmp eq i32 %21, 0
  br i1 %22, label %23, label %28

23:                                               ; preds = %18
  %24 = load i32, ptr %19, align 8
  %25 = add i32 %24, 8192
  tail call void @XLogPutNextOid(i32 noundef %25) #8
  %26 = load ptr, ptr @TransamVariables, align 8
  %27 = getelementptr inbounds nuw i8, ptr %26, i64 4
  store i32 8192, ptr %27, align 4
  %.pre = load ptr, ptr @TransamVariables, align 8
  br label %28

28:                                               ; preds = %23, %18
  %29 = phi ptr [ %.pre, %23 ], [ %19, %18 ]
  %30 = load i32, ptr %29, align 8
  %31 = add i32 %30, 1
  store i32 %31, ptr %29, align 8
  %32 = load ptr, ptr @TransamVariables, align 8
  %33 = getelementptr inbounds nuw i8, ptr %32, i64 4
  %34 = load i32, ptr %33, align 4
  %35 = add i32 %34, -1
  store i32 %35, ptr %33, align 4
  %36 = load ptr, ptr @MainLWLockArray, align 8
  %37 = getelementptr inbounds nuw i8, ptr %36, i64 256
  tail call void @LWLockRelease(ptr noundef nonnull %37) #8
  ret i32 %30
}